target datalayout = "e-m:e-p270:32:32-p271:32:32-p272:64:64-i64:64-i128:128-f80:128-n8:16:32:64-S128"
target triple = "x86_64-pc-linux-gnu"

%struct._rtpstream_info = type { %struct._rtpstream_id, i8, ptr, [256 x ptr], ptr, i8, i32, i8, i32, i32, i32, ptr, ptr, %struct.nstime_t, %struct.nstime_t, %struct.nstime_t, i16, i8, i8, %struct._tap_rtp_stat_t, i8, ptr }
%struct._rtpstream_id = type { %struct._address, i16, %struct._address, i16, i32 }
%struct._address = type { i32, i32, ptr, ptr }
%struct.nstime_t = type { i64, i32 }
%struct._tap_rtp_stat_t = type { i8, i32, i16, i64, i64, double, [300 x %struct._bw_history_item], i16, i16, i32, i32, double, double, double, double, double, double, double, double, double, double, double, double, double, double, double, double, double, double, double, i32, i32, i32, i32, i32, i16, i32, i32, i32 }
%struct._bw_history_item = type { double, i32 }

; Function Attrs: null_pointer_is_valid sspstrong uwtable
define hidden void @rtpstream_info_free_data(ptr noundef %0) #2 {
  %2 = alloca ptr, align 8
  store ptr %0, ptr %2, align 8
  %3 = load ptr, ptr %2, align 8
  %4 = getelementptr inbounds nuw %struct._rtpstream_info, ptr %3, i32 0, i32 4
  %5 = load ptr, ptr %4, align 8
  %6 = icmp ne ptr %5, null
  br i1 %6, label %7, label %11

7:                                                ; preds = %1
  %8 = load ptr, ptr %2, align 8
  %9 = getelementptr inbounds nuw %struct._rtpstream_info, ptr %8, i32 0, i32 4
  %10 = load ptr, ptr %9, align 8
  call void @g_free(ptr noundef %10)
  br label %11

11:                                               ; preds = %7, %1
  %12 = load ptr, ptr %2, align 8
  %13 = getelementptr inbounds nuw %struct._rtpstream_info, ptr %12, i32 0, i32 0
  call void @rtpstream_id_free(ptr noundef %13)
  ret void
}

; Function Attrs: null_pointer_is_valid sspstrong uwtable
define hidden void @rtpstream_info_free_all(ptr noundef %0) #2 {
  %2 = alloca ptr, align 8
  store ptr %0, ptr %2, align 8
  %3 = load ptr, ptr %2, align 8
  call void @rtpstream_info_free_data(ptr noundef %3)
  %4 = load ptr, ptr %2, align 8
  call void @g_free(ptr noundef %4)
  ret void
}