; Function Attrs: null_pointer_is_valid sspstrong uwtable
define hidden void @rtpstream_info_free_all(ptr noundef %0) local_unnamed_addr #1 {
  %2 = getelementptr inbounds nuw i8, ptr %0, i64 2128
  %3 = load ptr, ptr %2, align 8
  %.not.i = icmp eq ptr %3, null
  br i1 %.not.i, label %rtpstream_info_free_data.exit, label %4

4:                                                ; preds = %1
  tail call void @g_free(ptr noundef nonnull %3)
  br label %rtpstream_info_free_data.exit

rtpstream_info_free_data.exit:                    ; preds = %1, %4
  tail call void @rtpstream_id_free(ptr noundef %0)
  tail call void @g_free(ptr noundef %0)
  ret void
}